target datalayout = "e-m:e-p270:32:32-p271:32:32-p272:64:64-i64:64-i128:128-f80:128-n8:16:32:64-S128"
target triple = "x86_64-pc-linux-gnu"

%class.RSCoder = type <{ [512 x i32], [256 x i32], [1024 x i32], [256 x i32], i32, [256 x i32], i32, [512 x i32], i8, [3 x i8] }>

; Function Attrs: mustprogress nounwind uwtable
define void @_ZN7RSCoder6gfInitEv(ptr noundef nonnull align 4 dereferenceable(11273) %0) #1 align 2 {
  %2 = alloca ptr, align 8
  %3 = alloca i32, align 4
  %4 = alloca i32, align 4
  %5 = alloca i32, align 4
  store ptr %0, ptr %2, align 8
  %6 = load ptr, ptr %2, align 8
  store i32 0, ptr %3, align 4
  store i32 1, ptr %4, align 4
  br label %7

7:                                                ; preds = %29, %1
  %8 = load i32, ptr %3, align 4
  %9 = icmp slt i32 %8, 255
  br i1 %9, label %10, label %32

10:                                               ; preds = %7
  %11 = load i32, ptr %3, align 4
  %12 = getelementptr inbounds %class.RSCoder, ptr %6, i32 0, i32 1
  %13 = load i32, ptr %4, align 4
  %14 = sext i32 %13 to i64
  %15 = getelementptr inbounds [256 x i32], ptr %12, i64 0, i64 %14
  store i32 %11, ptr %15, align 4
  %16 = load i32, ptr %4, align 4
  %17 = getelementptr inbounds %class.RSCoder, ptr %6, i32 0, i32 0
  %18 = load i32, ptr %3, align 4
  %19 = sext i32 %18 to i64
  %20 = getelementptr inbounds [512 x i32], ptr %17, i64 0, i64 %19
  store i32 %16, ptr %20, align 4
  %21 = load i32, ptr %4, align 4
  %22 = shl i32 %21, 1
  store i32 %22, ptr %4, align 4
  %23 = load i32, ptr %4, align 4
  %24 = icmp sgt i32 %23, 255
  br i1 %24, label %25, label %28

25:                                               ; preds = %10
  %26 = load i32, ptr %4, align 4
  %27 = xor i32 %26, 285
  store i32 %27, ptr %4, align 4
  br label %28

28:                                               ; preds = %25, %10
  br label %29

29:                                               ; preds = %28
  %30 = load i32, ptr %3, align 4
  %31 = add nsw i32 %30, 1
  store i32 %31, ptr %3, align 4
  br label %7, !llvm.loop !4

32:                                               ; preds = %7
  store i32 255, ptr %5, align 4
  br label %33

33:                                               ; preds = %47, %32
  %34 = load i32, ptr %5, align 4
  %35 = icmp slt i32 %34, 512
  br i1 %35, label %36, label %50

36:                                               ; preds = %33
  %37 = getelementptr inbounds %class.RSCoder, ptr %6, i32 0, i32 0
  %38 = load i32, ptr %5, align 4
  %39 = sub nsw i32 %38, 255
  %40 = sext i32 %39 to i64
  %41 = getelementptr inbounds [512 x i32], ptr %37, i64 0, i64 %40
  %42 = load i32, ptr %41, align 4
  %43 = getelementptr inbounds %class.RSCoder, ptr %6, i32 0, i32 0
  %44 = load i32, ptr %5, align 4
  %45 = sext i32 %44 to i64
  %46 = getelementptr inbounds [512 x i32], ptr %43, i64 0, i64 %45
  store i32 %42, ptr %46, align 4
  br label %47

47:                                               ; preds = %36
  %48 = load i32, ptr %5, align 4
  %49 = add nsw i32 %48, 1
  store i32 %49, ptr %5, align 4
  br label %33, !llvm.loop !6

50:                                               ; preds = %33
  ret void
}