; Function Attrs: mustprogress nofree norecurse nosync nounwind memory(argmem: readwrite) uwtable
define void @_ZN7RSCoder6gfInitEv(ptr nocapture noundef nonnull align 4 dereferenceable(11273) %0) local_unnamed_addr #0 align 2 {
  %2 = getelementptr inbounds i8, ptr %0, i64 2048
  br label %3

3:                                                ; preds = %1, %3
  %indvars.iv = phi i64 [ 0, %1 ], [ %indvars.iv.next, %3 ]
  %.01318 = phi i32 [ 1, %1 ], [ %spec.select, %3 ]
  %4 = sext i32 %.01318 to i64
  %5 = getelementptr inbounds [256 x i32], ptr %2, i64 0, i64 %4
  %6 = trunc nuw nsw i64 %indvars.iv to i32
  store i32 %6, ptr %5, align 4
  %7 = getelementptr inbounds [512 x i32], ptr %0, i64 0, i64 %indvars.iv
  store i32 %.01318, ptr %7, align 4
  %8 = shl i32 %.01318, 1
  %9 = icmp sgt i32 %8, 255
  %10 = xor i32 %8, 285
  %spec.select = select i1 %9, i32 %10, i32 %8
  %indvars.iv.next = add nuw nsw i64 %indvars.iv, 1
  %exitcond.not = icmp eq i64 %indvars.iv.next, 255
  br i1 %exitcond.not, label %.preheader, label %3, !llvm.loop !4

.preheader:                                       ; preds = %3, %.preheader
  %indvars.iv21 = phi i64 [ %indvars.iv.next22, %.preheader ], [ 255, %3 ]
  %11 = add nsw i64 %indvars.iv21, -255
  %12 = getelementptr inbounds [512 x i32], ptr %0, i64 0, i64 %11
  %13 = load i32, ptr %12, align 4
  %14 = getelementptr inbounds [512 x i32], ptr %0, i64 0, i64 %indvars.iv21
  store i32 %13, ptr %14, align 4
  %indvars.iv.next22 = add nuw nsw i64 %indvars.iv21, 1
  %exitcond24.not = icmp eq i64 %indvars.iv.next22, 512
  br i1 %exitcond24.not, label %15, label %.preheader, !llvm.loop !6

15:                                               ; preds = %.preheader
  ret void
}